target datalayout = "e-m:e-p270:32:32-p271:32:32-p272:64:64-i64:64-i128:128-f80:128-n8:16:32:64-S128"
target triple = "x86_64-unknown-linux-gnu"

%"class.hermes::vm::CardTable::Boundary" = type { i64, ptr }
%"class.hermes::vm::AlignedHeapSegment::Contents" = type <{ %"class.hermes::vm::CardTable", %"class.hermes::vm::MarkBitArrayNC", [4096 x i8], [1 x i8], [7 x i8] }>
%"class.hermes::vm::CardTable" = type { %"struct.std::array.78", [8192 x i8] }
%"struct.std::array.78" = type { [8192 x %"struct.std::atomic.79"] }
%"struct.std::atomic.79" = type { i8 }
%"class.hermes::vm::MarkBitArrayNC" = type { %"class.hermes::BitArray.97" }
%"class.hermes::BitArray.97" = type { %"struct.std::array.98" }
%"struct.std::array.98" = type { [8192 x i64] }

; Function Attrs: mustprogress nounwind uwtable
define linkonce_odr hidden noundef ptr @_ZNK6hermes2vm9CardTable4baseEv(ptr noundef nonnull align 1 dereferenceable(16384) %this) #0 comdat align 2 {
entry:
  %this.addr = alloca ptr, align 8
  store ptr %this, ptr %this.addr, align 8
  %this1 = load ptr, ptr %this.addr, align 8
  ret ptr %this1
}

; Function Attrs: mustprogress nounwind uwtable
define linkonce_odr hidden void @_ZN6hermes2vm9CardTable8BoundaryC2EmPKc(ptr noundef nonnull align 8 dereferenceable(16) %this, i64 noundef %index, ptr noundef %address) unnamed_addr #0 comdat align 2 {
entry:
  %this.addr = alloca ptr, align 8
  %index.addr = alloca i64, align 8
  %address.addr = alloca ptr, align 8
  store ptr %this, ptr %this.addr, align 8
  store i64 %index, ptr %index.addr, align 8
  store ptr %address, ptr %address.addr, align 8
  %this1 = load ptr, ptr %this.addr, align 8
  %index_ = getelementptr inbounds %"class.hermes::vm::CardTable::Boundary", ptr %this1, i32 0, i32 0
  %0 = load i64, ptr %index.addr, align 8
  store i64 %0, ptr %index_, align 8
  %address_ = getelementptr inbounds %"class.hermes::vm::CardTable::Boundary", ptr %this1, i32 0, i32 1
  %1 = load ptr, ptr %address.addr, align 8
  store ptr %1, ptr %address_, align 8
  ret void
}

; Function Attrs: mustprogress nounwind uwtable
define linkonce_odr hidden noundef ptr @_ZNK6hermes2vm9CardTable14indexToAddressEm(ptr noundef nonnull align 1 dereferenceable(16384) %this, i64 noundef %index) #0 comdat align 2 {
entry:
  %this.addr = alloca ptr, align 8
  %index.addr = alloca i64, align 8
  %res = alloca ptr, align 8
  store ptr %this, ptr %this.addr, align 8
  store i64 %index, ptr %index.addr, align 8
  %this1 = load ptr, ptr %this.addr, align 8
  %call = call noundef ptr @_ZNK6hermes2vm9CardTable4baseEv(ptr noundef nonnull align 1 dereferenceable(16384) %this1)
  %0 = load i64, ptr %index.addr, align 8
  %shl = shl i64 %0, 9
  %add.ptr = getelementptr inbounds i8, ptr %call, i64 %shl
  store ptr %add.ptr, ptr %res, align 8
  %1 = load ptr, ptr %res, align 8
  ret ptr %1
}

; Function Attrs: mustprogress nounwind uwtable
define linkonce_odr hidden noundef i64 @_ZNK6hermes2vm9CardTable14addressToIndexEPKv(ptr noundef nonnull align 1 dereferenceable(16384) %this, ptr noundef %addr) #0 comdat align 2 {
entry:
  %this.addr = alloca ptr, align 8
  %addr.addr = alloca ptr, align 8
  %addrPtr = alloca ptr, align 8
  store ptr %this, ptr %this.addr, align 8
  store ptr %addr, ptr %addr.addr, align 8
  %this1 = load ptr, ptr %this.addr, align 8
  %0 = load ptr, ptr %addr.addr, align 8
  store ptr %0, ptr %addrPtr, align 8
  %1 = load ptr, ptr %addrPtr, align 8
  %call = call noundef ptr @_ZNK6hermes2vm9CardTable4baseEv(ptr noundef nonnull align 1 dereferenceable(16384) %this1)
  %sub.ptr.lhs.cast = ptrtoint ptr %1 to i64
  %sub.ptr.rhs.cast = ptrtoint ptr %call to i64
  %sub.ptr.sub = sub i64 %sub.ptr.lhs.cast, %sub.ptr.rhs.cast
  %shr = ashr i64 %sub.ptr.sub, 9
  ret i64 %shr
}

; Function Attrs: mustprogress nounwind uwtable
define linkonce_odr hidden noundef ptr @_ZN6hermes2vm18AlignedHeapSegment8contentsEPv(ptr noundef %lowLim) #0 comdat align 2 {
entry:
  %lowLim.addr = alloca ptr, align 8
  store ptr %lowLim, ptr %lowLim.addr, align 8
  %0 = load ptr, ptr %lowLim.addr, align 8
  ret ptr %0
}

; Function Attrs: mustprogress nounwind uwtable
define linkonce_odr hidden noundef ptr @_ZN6hermes2vm14AlignedStorage5startEPKv(ptr noundef %ptr) #0 comdat align 2 {
entry:
  %ptr.addr = alloca ptr, align 8
  store ptr %ptr, ptr %ptr.addr, align 8
  %0 = load ptr, ptr %ptr.addr, align 8
  %1 = ptrtoint ptr %0 to i64
  %and = and i64 %1, -4194304
  %2 = inttoptr i64 %and to ptr
  ret ptr %2
}

; Function Attrs: mustprogress nounwind uwtable
define linkonce_odr hidden noundef ptr @_ZNK6hermes2vm9CardTable8Boundary7addressEv(ptr noundef nonnull align 8 dereferenceable(16) %this) #0 comdat align 2 {
entry:
  %this.addr = alloca ptr, align 8
  store ptr %this, ptr %this.addr, align 8
  %this1 = load ptr, ptr %this.addr, align 8
  %address_ = getelementptr inbounds %"class.hermes::vm::CardTable::Boundary", ptr %this1, i32 0, i32 1
  %0 = load ptr, ptr %address_, align 8
  ret ptr %0
}

; Function Attrs: mustprogress nounwind uwtable
define linkonce_odr hidden { i64, ptr } @_ZNK6hermes2vm9CardTable12nextBoundaryEPKc(ptr noundef nonnull align 1 dereferenceable(16384) %this, ptr noundef %level) #0 comdat align 2 {
entry:
  %retval = alloca %"class.hermes::vm::CardTable::Boundary", align 8
  %this.addr = alloca ptr, align 8
  %level.addr = alloca ptr, align 8
  %ix = alloca i64, align 8
  %addr = alloca ptr, align 8
  store ptr %this, ptr %this.addr, align 8
  store ptr %level, ptr %level.addr, align 8
  %this1 = load ptr, ptr %this.addr, align 8
  %0 = load ptr, ptr %level.addr, align 8
  %add.ptr = getelementptr inbounds i8, ptr %0, i64 -1
  %call = call noundef i64 @_ZNK6hermes2vm9CardTable14addressToIndexEPKv(ptr noundef nonnull align 1 dereferenceable(16384) %this1, ptr noundef %add.ptr)
  %add = add i64 %call, 1
  store i64 %add, ptr %ix, align 8
  %1 = load i64, ptr %ix, align 8
  %call2 = call noundef ptr @_ZNK6hermes2vm9CardTable14indexToAddressEm(ptr noundef nonnull align 1 dereferenceable(16384) %this1, i64 noundef %1)
  store ptr %call2, ptr %addr, align 8
  %2 = load i64, ptr %ix, align 8
  %3 = load ptr, ptr %addr, align 8
  call void @_ZN6hermes2vm9CardTable8BoundaryC2EmPKc(ptr noundef nonnull align 8 dereferenceable(16) %retval, i64 noundef %2, ptr noundef %3)
  %4 = load { i64, ptr }, ptr %retval, align 8
  ret { i64, ptr } %4
}

; Function Attrs: mustprogress nounwind uwtable
define linkonce_odr hidden noundef ptr @_ZN6hermes2vm18AlignedHeapSegment17cardTableCoveringEPKv(ptr noundef %ptr) #0 comdat align 2 {
entry:
  %ptr.addr = alloca ptr, align 8
  store ptr %ptr, ptr %ptr.addr, align 8
  %0 = load ptr, ptr %ptr.addr, align 8
  %call = call noundef ptr @_ZN6hermes2vm14AlignedStorage5startEPKv(ptr noundef %0)
  %call1 = call noundef ptr @_ZN6hermes2vm18AlignedHeapSegment8contentsEPv(ptr noundef %call)
  %cardTable_ = getelementptr inbounds %"class.hermes::vm::AlignedHeapSegment::Contents", ptr %call1, i32 0, i32 0
  ret ptr %cardTable_
}

; Function Attrs: mustprogress nounwind uwtable
define hidden void @_ZN6hermes2vm7HadesGC11HeapSegment11setCellHeadEPKNS0_6GCCellEm(ptr noundef %cellStart, i64 noundef %sz) #0 align 2 {
entry:
  %cellStart.addr = alloca ptr, align 8
  %sz.addr = alloca i64, align 8
  %start = alloca ptr, align 8
  %end = alloca ptr, align 8
  %cards = alloca ptr, align 8
  %boundary = alloca %"class.hermes::vm::CardTable::Boundary", align 8
  store ptr %cellStart, ptr %cellStart.addr, align 8
  store i64 %sz, ptr %sz.addr, align 8
  %0 = load ptr, ptr %cellStart.addr, align 8
  store ptr %0, ptr %start, align 8
  %1 = load ptr, ptr %start, align 8
  %2 = load i64, ptr %sz.addr, align 8
  %add.ptr = getelementptr inbounds i8, ptr %1, i64 %2
  store ptr %add.ptr, ptr %end, align 8
  %3 = load ptr, ptr %start, align 8
  %call = call noundef ptr @_ZN6hermes2vm18AlignedHeapSegment17cardTableCoveringEPKv(ptr noundef %3)
  store ptr %call, ptr %cards, align 8
  %4 = load ptr, ptr %cards, align 8
  %5 = load ptr, ptr %start, align 8
  %call1 = call { i64, ptr } @_ZNK6hermes2vm9CardTable12nextBoundaryEPKc(ptr noundef nonnull align 1 dereferenceable(16384) %4, ptr noundef %5)
  %6 = getelementptr inbounds { i64, ptr }, ptr %boundary, i32 0, i32 0
  %7 = extractvalue { i64, ptr } %call1, 0
  store i64 %7, ptr %6, align 8
  %8 = getelementptr inbounds { i64, ptr }, ptr %boundary, i32 0, i32 1
  %9 = extractvalue { i64, ptr } %call1, 1
  store ptr %9, ptr %8, align 8
  %call2 = call noundef ptr @_ZNK6hermes2vm9CardTable8Boundary7addressEv(ptr noundef nonnull align 8 dereferenceable(16) %boundary)
  %10 = load ptr, ptr %end, align 8
  %cmp = icmp ult ptr %call2, %10
  br i1 %cmp, label %if.then, label %if.end

if.then:                                          ; preds = %entry
  %11 = load ptr, ptr %cards, align 8
  %12 = load ptr, ptr %start, align 8
  %13 = load ptr, ptr %end, align 8
  call void @_ZN6hermes2vm9CardTable16updateBoundariesEPNS1_8BoundaryEPKcS5_(ptr noundef nonnull align 1 dereferenceable(16384) %11, ptr noundef %boundary, ptr noundef %12, ptr noundef %13)
  br label %if.end

if.end:                                           ; preds = %if.then, %entry
  ret void
}