; Function Attrs: mustprogress nounwind uwtable
define hidden void @_ZN6hermes2vm7HadesGC11HeapSegment11setCellHeadEPKNS0_6GCCellEm(ptr noundef %cellStart, i64 noundef %sz) local_unnamed_addr #4 align 2 {
entry:
  %boundary = alloca %"class.hermes::vm::CardTable::Boundary", align 8
  %add.ptr = getelementptr inbounds i8, ptr %cellStart, i64 %sz
  %0 = ptrtoint ptr %cellStart to i64
  %and.i.i = and i64 %0, -4194304
  %1 = inttoptr i64 %and.i.i to ptr
  %add.ptr.i = getelementptr inbounds i8, ptr %cellStart, i64 -1
  %sub.ptr.lhs.cast.i.i = ptrtoint ptr %add.ptr.i to i64
  %sub.ptr.sub.i.i = sub i64 %sub.ptr.lhs.cast.i.i, %and.i.i
  %shr.i.i = ashr i64 %sub.ptr.sub.i.i, 9
  %add.i = add nsw i64 %shr.i.i, 1
  %shl.i.i = shl i64 %add.i, 9
  %add.ptr.i.i = getelementptr inbounds i8, ptr %1, i64 %shl.i.i
  store i64 %add.i, ptr %boundary, align 8
  %2 = getelementptr inbounds i8, ptr %boundary, i64 8
  store ptr %add.ptr.i.i, ptr %2, align 8
  %cmp = icmp ult ptr %add.ptr.i.i, %add.ptr
  br i1 %cmp, label %if.then, label %if.end

if.then:                                          ; preds = %entry
  call void @_ZN6hermes2vm9CardTable16updateBoundariesEPNS1_8BoundaryEPKcS5_(ptr noundef nonnull align 1 dereferenceable(16384) %1, ptr noundef nonnull %boundary, ptr noundef %cellStart, ptr noundef nonnull %add.ptr) #34
  br label %if.end

if.end:                                           ; preds = %if.then, %entry
  ret void
}